; Function Attrs: nofree norecurse nosync nounwind memory(readwrite, inaccessiblemem: none) uwtable
define void @Nwk_ManCleanTiming(ptr noundef readonly captures(none) %0) local_unnamed_addr #0 {
  %2 = getelementptr inbounds nuw i8, ptr %0, i64 32
  %3 = load ptr, ptr %2, align 8, !tbaa !3
  %4 = getelementptr i8, ptr %3, i64 4
  %.val = load i32, ptr %4, align 4, !tbaa !15
  %5 = icmp sgt i32 %.val, 0
  br i1 %5, label %.lr.ph, label %.critedge

.lr.ph:                                           ; preds = %1
  %6 = getelementptr i8, ptr %3, i64 8
  %.val9 = load ptr, ptr %6, align 8, !tbaa !17
  %wide.trip.count = zext nneg i32 %.val to i64
  br label %7

7:                                                ; preds = %.lr.ph, %15
  %indvars.iv = phi i64 [ 0, %.lr.ph ], [ %indvars.iv.next, %15 ]
  %8 = getelementptr inbounds nuw ptr, ptr %.val9, i64 %indvars.iv
  %9 = load ptr, ptr %8, align 8, !tbaa !18
  %10 = icmp eq ptr %9, null
  br i1 %10, label %15, label %11

11:                                               ; preds = %7
  %12 = getelementptr inbounds nuw i8, ptr %9, i64 56
  store float 0.000000e+00, ptr %12, align 8, !tbaa !19
  %13 = getelementptr inbounds nuw i8, ptr %9, i64 48
  store float 0.000000e+00, ptr %13, align 8, !tbaa !25
  %14 = getelementptr inbounds nuw i8, ptr %9, i64 52
  store float 1.000000e+09, ptr %14, align 4, !tbaa !26
  br label %15

15:                                               ; preds = %11, %7
  %indvars.iv.next = add nuw nsw i64 %indvars.iv, 1
  %exitcond.not = icmp eq i64 %indvars.iv.next, %wide.trip.count
  br i1 %exitcond.not, label %.critedge, label %7, !llvm.loop !27

.critedge:                                        ; preds = %15, %1
  ret void
}